; Function Attrs: mustprogress uwtable
define void @_ZN5folly4test21DeterministicSchedule17afterSharedAccessEv() local_unnamed_addr #7 align 2 {
  %1 = alloca i64, align 8
  %2 = tail call align 8 ptr @llvm.threadlocal.address.p0(ptr align 8 @_ZZN5folly20SingletonThreadLocalINS_4test12_GLOBAL__N_114PerThreadStateENS_6detail10DefaultTagENS4_11DefaultMakeIS3_EEvE3getEvE5cache)
  %3 = load ptr, ptr %2, align 8, !tbaa !43
  %.not.i = icmp eq ptr %3, null
  br i1 %.not.i, label %4, label %_ZN5folly20SingletonThreadLocalINS_4test12_GLOBAL__N_114PerThreadStateENS_6detail10DefaultTagENS4_11DefaultMakeIS3_EEvE3getEv.exit, !prof !45

4:                                                ; preds = %0
  %5 = tail call fastcc noundef nonnull align 8 dereferenceable(168) ptr @_ZN5folly20SingletonThreadLocalINS_4test12_GLOBAL__N_114PerThreadStateENS_6detail10DefaultTagENS4_11DefaultMakeIS3_EEvE7getSlowERNS4_25SingletonThreadLocalState10LocalCacheE(ptr noundef nonnull align 8 dereferenceable(8) %2)
  br label %_ZN5folly20SingletonThreadLocalINS_4test12_GLOBAL__N_114PerThreadStateENS_6detail10DefaultTagENS4_11DefaultMakeIS3_EEvE3getEv.exit

_ZN5folly20SingletonThreadLocalINS_4test12_GLOBAL__N_114PerThreadStateENS_6detail10DefaultTagENS4_11DefaultMakeIS3_EEvE3getEv.exit: ; preds = %0, %4
  %6 = phi ptr [ %5, %4 ], [ %3, %0 ]
  %7 = getelementptr inbounds nuw i8, ptr %6, i64 8
  %8 = load ptr, ptr %7, align 8, !tbaa !46
  %.not = icmp eq ptr %8, null
  br i1 %.not, label %27, label %9

9:                                                ; preds = %_ZN5folly20SingletonThreadLocalINS_4test12_GLOBAL__N_114PerThreadStateENS_6detail10DefaultTagENS4_11DefaultMakeIS3_EEvE3getEv.exit
  %10 = getelementptr inbounds nuw i8, ptr %8, i64 32
  %11 = getelementptr inbounds nuw i8, ptr %8, i64 40
  %12 = load ptr, ptr %11, align 8, !tbaa !97
  %13 = load ptr, ptr %10, align 8, !tbaa !100
  %14 = ptrtoint ptr %12 to i64
  %15 = ptrtoint ptr %13 to i64
  %16 = sub i64 %14, %15
  %17 = ashr exact i64 %16, 3
  call void @llvm.lifetime.start.p0(i64 8, ptr nonnull %1)
  store i64 %17, ptr %1, align 8, !tbaa !31
  %18 = getelementptr inbounds nuw i8, ptr %8, i64 16
  %19 = load ptr, ptr %18, align 8, !tbaa !63
  %.not.i.i = icmp eq ptr %19, null
  br i1 %.not.i.i, label %20, label %_ZNKSt8functionIFmmEEclEm.exit

20:                                               ; preds = %9
  tail call void @_ZSt25__throw_bad_function_callv() #38
  unreachable

_ZNKSt8functionIFmmEEclEm.exit:                   ; preds = %9
  %21 = getelementptr inbounds nuw i8, ptr %8, i64 24
  %22 = load ptr, ptr %21, align 8, !tbaa !61
  %23 = call noundef i64 %22(ptr noundef nonnull align 8 dereferenceable(32) %8, ptr noundef nonnull align 8 dereferenceable(8) %1)
  call void @llvm.lifetime.end.p0(i64 8, ptr nonnull %1)
  %24 = load ptr, ptr %10, align 8, !tbaa !100
  %25 = getelementptr inbounds nuw ptr, ptr %24, i64 %23
  %26 = load ptr, ptr %25, align 8, !tbaa !99
  call void @_ZN5folly4test9Semaphore4postIZNS1_4postEvEUlvE_EEvT_(ptr noundef nonnull align 8 dereferenceable(112) %26)
  br label %27

27:                                               ; preds = %_ZN5folly20SingletonThreadLocalINS_4test12_GLOBAL__N_114PerThreadStateENS_6detail10DefaultTagENS4_11DefaultMakeIS3_EEvE3getEv.exit, %_ZNKSt8functionIFmmEEclEm.exit
  ret void
}